; Function Attrs: nounwind uwtable
define dso_local i64 @PyTuple_Size(ptr noundef readonly captures(none) %0) local_unnamed_addr #0 {
  %2 = getelementptr i8, ptr %0, i64 8
  %.val2 = load ptr, ptr %2, align 8, !tbaa !99
  %3 = getelementptr i8, ptr %.val2, i64 168
  %.val3 = load i64, ptr %3, align 8, !tbaa !100
  %4 = and i64 %.val3, 67108864
  %.not = icmp eq i64 %4, 0
  br i1 %.not, label %5, label %6

5:                                                ; preds = %1
  tail call void @_PyErr_BadInternalCall(ptr noundef nonnull @.str, i32 noundef 89) #9
  br label %8

6:                                                ; preds = %1
  %7 = getelementptr i8, ptr %0, i64 16
  %.val = load i64, ptr %7, align 8, !tbaa !107
  br label %8

8:                                                ; preds = %6, %5
  %.0 = phi i64 [ %.val, %6 ], [ -1, %5 ]
  ret i64 %.0
}